target datalayout = "e-m:e-p270:32:32-p271:32:32-p272:64:64-i64:64-i128:128-f80:128-n8:16:32:64-S128"
target triple = "x86_64-pc-linux-gnu"

; Function Attrs: nounwind uwtable
define internal void @lfe_fir_float_c(ptr noundef %0, ptr noundef %1, ptr noundef %2, i64 noundef %3, i32 noundef %4) #1 {
  %6 = alloca ptr, align 8
  %7 = alloca ptr, align 8
  %8 = alloca ptr, align 8
  %9 = alloca i64, align 8
  %10 = alloca i32, align 4
  %11 = alloca i32, align 4
  %12 = alloca i32, align 4
  %13 = alloca i32, align 4
  %14 = alloca i32, align 4
  %15 = alloca i32, align 4
  %16 = alloca i32, align 4
  %17 = alloca float, align 4
  %18 = alloca float, align 4
  store ptr %0, ptr %6, align 8, !tbaa !42
  store ptr %1, ptr %7, align 8, !tbaa !28
  store ptr %2, ptr %8, align 8, !tbaa !42
  store i64 %3, ptr %9, align 8, !tbaa !32
  store i32 %4, ptr %10, align 4, !tbaa !34
  call void @llvm.lifetime.start.p0(i64 4, ptr %11) #7
  %19 = load i32, ptr %10, align 4, !tbaa !34
  %20 = shl i32 64, %19
  store i32 %20, ptr %11, align 4, !tbaa !34
  call void @llvm.lifetime.start.p0(i64 4, ptr %12) #7
  %21 = load i32, ptr %10, align 4, !tbaa !34
  %22 = ashr i32 8, %21
  store i32 %22, ptr %12, align 4, !tbaa !34
  call void @llvm.lifetime.start.p0(i64 4, ptr %13) #7
  %23 = load i64, ptr %9, align 8, !tbaa !32
  %24 = load i32, ptr %10, align 4, !tbaa !34
  %25 = add nsw i32 %24, 1
  %26 = zext i32 %25 to i64
  %27 = ashr i64 %23, %26
  %28 = trunc i64 %27 to i32
  store i32 %28, ptr %13, align 4, !tbaa !34
  call void @llvm.lifetime.start.p0(i64 4, ptr %14) #7
  call void @llvm.lifetime.start.p0(i64 4, ptr %15) #7
  call void @llvm.lifetime.start.p0(i64 4, ptr %16) #7
  store i32 0, ptr %14, align 4, !tbaa !34
  br label %29

29:                                               ; preds = %109, %5
  %30 = load i32, ptr %14, align 4, !tbaa !34
  %31 = load i32, ptr %13, align 4, !tbaa !34
  %32 = icmp slt i32 %30, %31
  br i1 %32, label %33, label %112

33:                                               ; preds = %29
  store i32 0, ptr %15, align 4, !tbaa !34
  br label %34

34:                                               ; preds = %99, %33
  %35 = load i32, ptr %15, align 4, !tbaa !34
  %36 = load i32, ptr %11, align 4, !tbaa !34
  %37 = sdiv i32 %36, 2
  %38 = icmp slt i32 %35, %37
  br i1 %38, label %39, label %102

39:                                               ; preds = %34
  call void @llvm.lifetime.start.p0(i64 4, ptr %17) #7
  store float 0.000000e+00, ptr %17, align 4, !tbaa !44
  call void @llvm.lifetime.start.p0(i64 4, ptr %18) #7
  store float 0.000000e+00, ptr %18, align 4, !tbaa !44
  store i32 0, ptr %16, align 4, !tbaa !34
  br label %40

40:                                               ; preds = %82, %39
  %41 = load i32, ptr %16, align 4, !tbaa !34
  %42 = load i32, ptr %12, align 4, !tbaa !34
  %43 = icmp slt i32 %41, %42
  br i1 %43, label %44, label %85

44:                                               ; preds = %40
  %45 = load ptr, ptr %8, align 8, !tbaa !42
  %46 = load i32, ptr %15, align 4, !tbaa !34
  %47 = load i32, ptr %12, align 4, !tbaa !34
  %48 = mul nsw i32 %46, %47
  %49 = load i32, ptr %16, align 4, !tbaa !34
  %50 = add nsw i32 %48, %49
  %51 = sext i32 %50 to i64
  %52 = getelementptr inbounds float, ptr %45, i64 %51
  %53 = load float, ptr %52, align 4, !tbaa !44
  %54 = load ptr, ptr %7, align 8, !tbaa !28
  %55 = load i32, ptr %16, align 4, !tbaa !34
  %56 = sub nsw i32 0, %55
  %57 = sext i32 %56 to i64
  %58 = getelementptr inbounds i32, ptr %54, i64 %57
  %59 = load i32, ptr %58, align 4, !tbaa !34
  %60 = sitofp i32 %59 to float
  %61 = load float, ptr %17, align 4, !tbaa !44
  %62 = call nsz float @llvm.fmuladd.f32(float %53, float %60, float %61)
  store float %62, ptr %17, align 4, !tbaa !44
  %63 = load ptr, ptr %8, align 8, !tbaa !42
  %64 = load i32, ptr %15, align 4, !tbaa !34
  %65 = load i32, ptr %12, align 4, !tbaa !34
  %66 = mul nsw i32 %64, %65
  %67 = sub nsw i32 255, %66
  %68 = load i32, ptr %16, align 4, !tbaa !34
  %69 = sub nsw i32 %67, %68
  %70 = sext i32 %69 to i64
  %71 = getelementptr inbounds float, ptr %63, i64 %70
  %72 = load float, ptr %71, align 4, !tbaa !44
  %73 = load ptr, ptr %7, align 8, !tbaa !28
  %74 = load i32, ptr %16, align 4, !tbaa !34
  %75 = sub nsw i32 0, %74
  %76 = sext i32 %75 to i64
  %77 = getelementptr inbounds i32, ptr %73, i64 %76
  %78 = load i32, ptr %77, align 4, !tbaa !34
  %79 = sitofp i32 %78 to float
  %80 = load float, ptr %18, align 4, !tbaa !44
  %81 = call nsz float @llvm.fmuladd.f32(float %72, float %79, float %80)
  store float %81, ptr %18, align 4, !tbaa !44
  br label %82

82:                                               ; preds = %44
  %83 = load i32, ptr %16, align 4, !tbaa !34
  %84 = add nsw i32 %83, 1
  store i32 %84, ptr %16, align 4, !tbaa !34
  br label %40, !llvm.loop !89

85:                                               ; preds = %40
  %86 = load float, ptr %17, align 4, !tbaa !44
  %87 = load ptr, ptr %6, align 8, !tbaa !42
  %88 = load i32, ptr %15, align 4, !tbaa !34
  %89 = sext i32 %88 to i64
  %90 = getelementptr inbounds float, ptr %87, i64 %89
  store float %86, ptr %90, align 4, !tbaa !44
  %91 = load float, ptr %18, align 4, !tbaa !44
  %92 = load ptr, ptr %6, align 8, !tbaa !42
  %93 = load i32, ptr %11, align 4, !tbaa !34
  %94 = sdiv i32 %93, 2
  %95 = load i32, ptr %15, align 4, !tbaa !34
  %96 = add nsw i32 %94, %95
  %97 = sext i32 %96 to i64
  %98 = getelementptr inbounds float, ptr %92, i64 %97
  store float %91, ptr %98, align 4, !tbaa !44
  call void @llvm.lifetime.end.p0(i64 4, ptr %18) #7
  call void @llvm.lifetime.end.p0(i64 4, ptr %17) #7
  br label %99

99:                                               ; preds = %85
  %100 = load i32, ptr %15, align 4, !tbaa !34
  %101 = add nsw i32 %100, 1
  store i32 %101, ptr %15, align 4, !tbaa !34
  br label %34, !llvm.loop !90

102:                                              ; preds = %34
  %103 = load ptr, ptr %7, align 8, !tbaa !28
  %104 = getelementptr inbounds nuw i32, ptr %103, i32 1
  store ptr %104, ptr %7, align 8, !tbaa !28
  %105 = load i32, ptr %11, align 4, !tbaa !34
  %106 = load ptr, ptr %6, align 8, !tbaa !42
  %107 = sext i32 %105 to i64
  %108 = getelementptr inbounds float, ptr %106, i64 %107
  store ptr %108, ptr %6, align 8, !tbaa !42
  br label %109

109:                                              ; preds = %102
  %110 = load i32, ptr %14, align 4, !tbaa !34
  %111 = add nsw i32 %110, 1
  store i32 %111, ptr %14, align 4, !tbaa !34
  br label %29, !llvm.loop !91

112:                                              ; preds = %29
  call void @llvm.lifetime.end.p0(i64 4, ptr %16) #7
  call void @llvm.lifetime.end.p0(i64 4, ptr %15) #7
  call void @llvm.lifetime.end.p0(i64 4, ptr %14) #7
  call void @llvm.lifetime.end.p0(i64 4, ptr %13) #7
  call void @llvm.lifetime.end.p0(i64 4, ptr %12) #7
  call void @llvm.lifetime.end.p0(i64 4, ptr %11) #7
  ret void
}

; Function Attrs: nounwind uwtable
define internal void @lfe_fir0_float_c(ptr noundef %0, ptr noundef %1, ptr noundef %2, i64 noundef %3) #1 {
  %5 = alloca ptr, align 8
  %6 = alloca ptr, align 8
  %7 = alloca ptr, align 8
  %8 = alloca i64, align 8
  store ptr %0, ptr %5, align 8, !tbaa !42
  store ptr %1, ptr %6, align 8, !tbaa !28
  store ptr %2, ptr %7, align 8, !tbaa !42
  store i64 %3, ptr %8, align 8, !tbaa !32
  %9 = load ptr, ptr %5, align 8, !tbaa !42
  %10 = load ptr, ptr %6, align 8, !tbaa !28
  %11 = load ptr, ptr %7, align 8, !tbaa !42
  %12 = load i64, ptr %8, align 8, !tbaa !32
  call void @lfe_fir_float_c(ptr noundef %9, ptr noundef %10, ptr noundef %11, i64 noundef %12, i32 noundef 0)
  ret void
}